target datalayout = "e-m:e-p270:32:32-p271:32:32-p272:64:64-i64:64-i128:128-f80:128-n8:16:32:64-S128"
target triple = "x86_64-pc-linux-gnu"

%struct.SurfaceDataRasInfo = type { %struct.SurfaceDataBounds, ptr, i32, i32, i32, i32, ptr, ptr, ptr, ptr, ptr, ptr, i32, %union.anon.0 }
%struct.SurfaceDataBounds = type { i32, i32, i32, i32 }
%union.anon.0 = type { ptr, [56 x i8] }

@mul8table = external global [256 x [256 x i8]], align 16
@div8table = external global [256 x [256 x i8]], align 16

; Function Attrs: nounwind uwtable
define hidden void @Ushort565RgbSrcMaskFill(ptr noundef %0, ptr noundef %1, i32 noundef %2, i32 noundef %3, i32 noundef %4, i32 noundef %5, i32 noundef %6, ptr noundef %7, ptr noundef %8, ptr noundef %9) #1 {
  %11 = alloca ptr, align 8
  %12 = alloca ptr, align 8
  %13 = alloca i32, align 4
  %14 = alloca i32, align 4
  %15 = alloca i32, align 4
  %16 = alloca i32, align 4
  %17 = alloca i32, align 4
  %18 = alloca ptr, align 8
  %19 = alloca ptr, align 8
  %20 = alloca ptr, align 8
  %21 = alloca i32, align 4
  %22 = alloca i32, align 4
  %23 = alloca i32, align 4
  %24 = alloca i32, align 4
  %25 = alloca i32, align 4
  %26 = alloca ptr, align 8
  %27 = alloca i16, align 2
  %28 = alloca i32, align 4
  %29 = alloca i32, align 4
  %30 = alloca i32, align 4
  %31 = alloca i32, align 4
  %32 = alloca i32, align 4
  %33 = alloca i32, align 4
  %34 = alloca i32, align 4
  %35 = alloca i16, align 2
  %36 = alloca i32, align 4
  store ptr %0, ptr %11, align 8
  store ptr %1, ptr %12, align 8
  store i32 %2, ptr %13, align 4
  store i32 %3, ptr %14, align 4
  store i32 %4, ptr %15, align 4
  store i32 %5, ptr %16, align 4
  store i32 %6, ptr %17, align 4
  store ptr %7, ptr %18, align 8
  store ptr %8, ptr %19, align 8
  store ptr %9, ptr %20, align 8
  %37 = load ptr, ptr %18, align 8
  %38 = getelementptr inbounds %struct.SurfaceDataRasInfo, ptr %37, i32 0, i32 4
  %39 = load i32, ptr %38, align 8
  store i32 %39, ptr %25, align 4
  %40 = load ptr, ptr %11, align 8
  store ptr %40, ptr %26, align 8
  br label %41

41:                                               ; preds = %10
  %42 = load i32, ptr %17, align 4
  %43 = and i32 %42, 255
  store i32 %43, ptr %24, align 4
  %44 = load i32, ptr %17, align 4
  %45 = ashr i32 %44, 8
  %46 = and i32 %45, 255
  store i32 %46, ptr %23, align 4
  %47 = load i32, ptr %17, align 4
  %48 = ashr i32 %47, 16
  %49 = and i32 %48, 255
  store i32 %49, ptr %22, align 4
  %50 = load i32, ptr %17, align 4
  %51 = ashr i32 %50, 24
  %52 = and i32 %51, 255
  store i32 %52, ptr %21, align 4
  br label %53

53:                                               ; preds = %41
  %54 = load i32, ptr %21, align 4
  %55 = icmp eq i32 %54, 0
  br i1 %55, label %56, label %57

56:                                               ; preds = %53
  store i32 0, ptr %24, align 4
  store i32 0, ptr %23, align 4
  store i32 0, ptr %22, align 4
  store i16 0, ptr %27, align 2
  br label %100

57:                                               ; preds = %53
  %58 = load i32, ptr %22, align 4
  %59 = ashr i32 %58, 3
  %60 = shl i32 %59, 11
  %61 = load i32, ptr %23, align 4
  %62 = ashr i32 %61, 2
  %63 = shl i32 %62, 5
  %64 = or i32 %60, %63
  %65 = load i32, ptr %24, align 4
  %66 = ashr i32 %65, 3
  %67 = shl i32 %66, 0
  %68 = or i32 %64, %67
  %69 = trunc i32 %68 to i16
  store i16 %69, ptr %27, align 2
  %70 = load i32, ptr %21, align 4
  %71 = icmp ne i32 %70, 255
  br i1 %71, label %72, label %99

72:                                               ; preds = %57
  br label %73

73:                                               ; preds = %72
  %74 = load i32, ptr %21, align 4
  %75 = sext i32 %74 to i64
  %76 = getelementptr inbounds [256 x [256 x i8]], ptr @mul8table, i64 0, i64 %75
  %77 = load i32, ptr %22, align 4
  %78 = sext i32 %77 to i64
  %79 = getelementptr inbounds [256 x i8], ptr %76, i64 0, i64 %78
  %80 = load i8, ptr %79, align 1
  %81 = zext i8 %80 to i32
  store i32 %81, ptr %22, align 4
  %82 = load i32, ptr %21, align 4
  %83 = sext i32 %82 to i64
  %84 = getelementptr inbounds [256 x [256 x i8]], ptr @mul8table, i64 0, i64 %83
  %85 = load i32, ptr %23, align 4
  %86 = sext i32 %85 to i64
  %87 = getelementptr inbounds [256 x i8], ptr %84, i64 0, i64 %86
  %88 = load i8, ptr %87, align 1
  %89 = zext i8 %88 to i32
  store i32 %89, ptr %23, align 4
  %90 = load i32, ptr %21, align 4
  %91 = sext i32 %90 to i64
  %92 = getelementptr inbounds [256 x [256 x i8]], ptr @mul8table, i64 0, i64 %91
  %93 = load i32, ptr %24, align 4
  %94 = sext i32 %93 to i64
  %95 = getelementptr inbounds [256 x i8], ptr %92, i64 0, i64 %94
  %96 = load i8, ptr %95, align 1
  %97 = zext i8 %96 to i32
  store i32 %97, ptr %24, align 4
  br label %98

98:                                               ; preds = %73
  br label %99

99:                                               ; preds = %98, %57
  br label %100

100:                                              ; preds = %99, %56
  %101 = load i32, ptr %15, align 4
  %102 = mul nsw i32 %101, 2
  %103 = load i32, ptr %25, align 4
  %104 = sub nsw i32 %103, %102
  store i32 %104, ptr %25, align 4
  %105 = load ptr, ptr %12, align 8
  %106 = icmp ne ptr %105, null
  br i1 %106, label %107, label %313

107:                                              ; preds = %100
  %108 = load i32, ptr %13, align 4
  %109 = load ptr, ptr %12, align 8
  %110 = sext i32 %108 to i64
  %111 = getelementptr inbounds i8, ptr %109, i64 %110
  store ptr %111, ptr %12, align 8
  %112 = load i32, ptr %15, align 4
  %113 = load i32, ptr %14, align 4
  %114 = sub nsw i32 %113, %112
  store i32 %114, ptr %14, align 4
  br label %115

115:                                              ; preds = %308, %107
  %116 = load i32, ptr %15, align 4
  store i32 %116, ptr %28, align 4
  br label %117

117:                                              ; preds = %291, %115
  %118 = load ptr, ptr %12, align 8
  %119 = getelementptr inbounds i8, ptr %118, i32 1
  store ptr %119, ptr %12, align 8
  %120 = load i8, ptr %118, align 1
  %121 = zext i8 %120 to i32
  store i32 %121, ptr %34, align 4
  %122 = load i32, ptr %34, align 4
  %123 = icmp sgt i32 %122, 0
  br i1 %123, label %124, label %286

124:                                              ; preds = %117
  %125 = load i32, ptr %34, align 4
  %126 = icmp eq i32 %125, 255
  br i1 %126, label %127, label %131

127:                                              ; preds = %124
  %128 = load i16, ptr %27, align 2
  %129 = load ptr, ptr %26, align 8
  %130 = getelementptr inbounds i16, ptr %129, i64 0
  store i16 %128, ptr %130, align 2
  br label %285

131:                                              ; preds = %124
  %132 = load i32, ptr %34, align 4
  %133 = sub nsw i32 255, %132
  store i32 %133, ptr %33, align 4
  store i32 255, ptr %29, align 4
  %134 = load i32, ptr %33, align 4
  %135 = sext i32 %134 to i64
  %136 = getelementptr inbounds [256 x [256 x i8]], ptr @mul8table, i64 0, i64 %135
  %137 = load i32, ptr %29, align 4
  %138 = sext i32 %137 to i64
  %139 = getelementptr inbounds [256 x i8], ptr %136, i64 0, i64 %138
  %140 = load i8, ptr %139, align 1
  %141 = zext i8 %140 to i32
  store i32 %141, ptr %29, align 4
  %142 = load i32, ptr %29, align 4
  store i32 %142, ptr %33, align 4
  %143 = load i32, ptr %34, align 4
  %144 = sext i32 %143 to i64
  %145 = getelementptr inbounds [256 x [256 x i8]], ptr @mul8table, i64 0, i64 %144
  %146 = load i32, ptr %21, align 4
  %147 = sext i32 %146 to i64
  %148 = getelementptr inbounds [256 x i8], ptr %145, i64 0, i64 %147
  %149 = load i8, ptr %148, align 1
  %150 = zext i8 %149 to i32
  %151 = load i32, ptr %29, align 4
  %152 = add nsw i32 %151, %150
  store i32 %152, ptr %29, align 4
  br label %153

153:                                              ; preds = %131
  %154 = load ptr, ptr %26, align 8
  %155 = getelementptr inbounds i16, ptr %154, i64 0
  %156 = load i16, ptr %155, align 2
  store i16 %156, ptr %35, align 2
  %157 = load i16, ptr %35, align 2
  %158 = zext i16 %157 to i32
  %159 = ashr i32 %158, 11
  %160 = and i32 %159, 31
  store i32 %160, ptr %30, align 4
  %161 = load i32, ptr %30, align 4
  %162 = shl i32 %161, 3
  %163 = load i32, ptr %30, align 4
  %164 = ashr i32 %163, 2
  %165 = or i32 %162, %164
  store i32 %165, ptr %30, align 4
  %166 = load i16, ptr %35, align 2
  %167 = zext i16 %166 to i32
  %168 = ashr i32 %167, 5
  %169 = and i32 %168, 63
  store i32 %169, ptr %31, align 4
  %170 = load i32, ptr %31, align 4
  %171 = shl i32 %170, 2
  %172 = load i32, ptr %31, align 4
  %173 = ashr i32 %172, 4
  %174 = or i32 %171, %173
  store i32 %174, ptr %31, align 4
  %175 = load i16, ptr %35, align 2
  %176 = zext i16 %175 to i32
  %177 = ashr i32 %176, 0
  %178 = and i32 %177, 31
  store i32 %178, ptr %32, align 4
  %179 = load i32, ptr %32, align 4
  %180 = shl i32 %179, 3
  %181 = load i32, ptr %32, align 4
  %182 = ashr i32 %181, 2
  %183 = or i32 %180, %182
  store i32 %183, ptr %32, align 4
  br label %184

184:                                              ; preds = %153
  br label %185

185:                                              ; preds = %184
  %186 = load i32, ptr %33, align 4
  %187 = sext i32 %186 to i64
  %188 = getelementptr inbounds [256 x [256 x i8]], ptr @mul8table, i64 0, i64 %187
  %189 = load i32, ptr %30, align 4
  %190 = sext i32 %189 to i64
  %191 = getelementptr inbounds [256 x i8], ptr %188, i64 0, i64 %190
  %192 = load i8, ptr %191, align 1
  %193 = zext i8 %192 to i32
  %194 = load i32, ptr %34, align 4
  %195 = sext i32 %194 to i64
  %196 = getelementptr inbounds [256 x [256 x i8]], ptr @mul8table, i64 0, i64 %195
  %197 = load i32, ptr %22, align 4
  %198 = sext i32 %197 to i64
  %199 = getelementptr inbounds [256 x i8], ptr %196, i64 0, i64 %198
  %200 = load i8, ptr %199, align 1
  %201 = zext i8 %200 to i32
  %202 = add nsw i32 %193, %201
  store i32 %202, ptr %30, align 4
  %203 = load i32, ptr %33, align 4
  %204 = sext i32 %203 to i64
  %205 = getelementptr inbounds [256 x [256 x i8]], ptr @mul8table, i64 0, i64 %204
  %206 = load i32, ptr %31, align 4
  %207 = sext i32 %206 to i64
  %208 = getelementptr inbounds [256 x i8], ptr %205, i64 0, i64 %207
  %209 = load i8, ptr %208, align 1
  %210 = zext i8 %209 to i32
  %211 = load i32, ptr %34, align 4
  %212 = sext i32 %211 to i64
  %213 = getelementptr inbounds [256 x [256 x i8]], ptr @mul8table, i64 0, i64 %212
  %214 = load i32, ptr %23, align 4
  %215 = sext i32 %214 to i64
  %216 = getelementptr inbounds [256 x i8], ptr %213, i64 0, i64 %215
  %217 = load i8, ptr %216, align 1
  %218 = zext i8 %217 to i32
  %219 = add nsw i32 %210, %218
  store i32 %219, ptr %31, align 4
  %220 = load i32, ptr %33, align 4
  %221 = sext i32 %220 to i64
  %222 = getelementptr inbounds [256 x [256 x i8]], ptr @mul8table, i64 0, i64 %221
  %223 = load i32, ptr %32, align 4
  %224 = sext i32 %223 to i64
  %225 = getelementptr inbounds [256 x i8], ptr %222, i64 0, i64 %224
  %226 = load i8, ptr %225, align 1
  %227 = zext i8 %226 to i32
  %228 = load i32, ptr %34, align 4
  %229 = sext i32 %228 to i64
  %230 = getelementptr inbounds [256 x [256 x i8]], ptr @mul8table, i64 0, i64 %229
  %231 = load i32, ptr %24, align 4
  %232 = sext i32 %231 to i64
  %233 = getelementptr inbounds [256 x i8], ptr %230, i64 0, i64 %232
  %234 = load i8, ptr %233, align 1
  %235 = zext i8 %234 to i32
  %236 = add nsw i32 %227, %235
  store i32 %236, ptr %32, align 4
  br label %237

237:                                              ; preds = %185
  %238 = load i32, ptr %29, align 4
  %239 = icmp ne i32 %238, 0
  br i1 %239, label %240, label %270

240:                                              ; preds = %237
  %241 = load i32, ptr %29, align 4
  %242 = icmp slt i32 %241, 255
  br i1 %242, label %243, label %270

243:                                              ; preds = %240
  br label %244

244:                                              ; preds = %243
  %245 = load i32, ptr %29, align 4
  %246 = sext i32 %245 to i64
  %247 = getelementptr inbounds [256 x [256 x i8]], ptr @div8table, i64 0, i64 %246
  %248 = load i32, ptr %30, align 4
  %249 = sext i32 %248 to i64
  %250 = getelementptr inbounds [256 x i8], ptr %247, i64 0, i64 %249
  %251 = load i8, ptr %250, align 1
  %252 = zext i8 %251 to i32
  store i32 %252, ptr %30, align 4
  %253 = load i32, ptr %29, align 4
  %254 = sext i32 %253 to i64
  %255 = getelementptr inbounds [256 x [256 x i8]], ptr @div8table, i64 0, i64 %254
  %256 = load i32, ptr %31, align 4
  %257 = sext i32 %256 to i64
  %258 = getelementptr inbounds [256 x i8], ptr %255, i64 0, i64 %257
  %259 = load i8, ptr %258, align 1
  %260 = zext i8 %259 to i32
  store i32 %260, ptr %31, align 4
  %261 = load i32, ptr %29, align 4
  %262 = sext i32 %261 to i64
  %263 = getelementptr inbounds [256 x [256 x i8]], ptr @div8table, i64 0, i64 %262
  %264 = load i32, ptr %32, align 4
  %265 = sext i32 %264 to i64
  %266 = getelementptr inbounds [256 x i8], ptr %263, i64 0, i64 %265
  %267 = load i8, ptr %266, align 1
  %268 = zext i8 %267 to i32
  store i32 %268, ptr %32, align 4
  br label %269

269:                                              ; preds = %244
  br label %270

270:                                              ; preds = %269, %240, %237
  %271 = load i32, ptr %30, align 4
  %272 = ashr i32 %271, 3
  %273 = shl i32 %272, 11
  %274 = load i32, ptr %31, align 4
  %275 = ashr i32 %274, 2
  %276 = shl i32 %275, 5
  %277 = or i32 %273, %276
  %278 = load i32, ptr %32, align 4
  %279 = ashr i32 %278, 3
  %280 = shl i32 %279, 0
  %281 = or i32 %277, %280
  %282 = trunc i32 %281 to i16
  %283 = load ptr, ptr %26, align 8
  %284 = getelementptr inbounds i16, ptr %283, i64 0
  store i16 %282, ptr %284, align 2
  br label %285

285:                                              ; preds = %270, %127
  br label %286

286:                                              ; preds = %285, %117
  %287 = load ptr, ptr %26, align 8
  %288 = ptrtoint ptr %287 to i64
  %289 = add nsw i64 %288, 2
  %290 = inttoptr i64 %289 to ptr
  store ptr %290, ptr %26, align 8
  br label %291

291:                                              ; preds = %286
  %292 = load i32, ptr %28, align 4
  %293 = add nsw i32 %292, -1
  store i32 %293, ptr %28, align 4
  %294 = icmp sgt i32 %293, 0
  br i1 %294, label %117, label %295, !llvm.loop !51

295:                                              ; preds = %291
  %296 = load ptr, ptr %26, align 8
  %297 = ptrtoint ptr %296 to i64
  %298 = load i32, ptr %25, align 4
  %299 = sext i32 %298 to i64
  %300 = add nsw i64 %297, %299
  %301 = inttoptr i64 %300 to ptr
  store ptr %301, ptr %26, align 8
  %302 = load ptr, ptr %12, align 8
  %303 = ptrtoint ptr %302 to i64
  %304 = load i32, ptr %14, align 4
  %305 = sext i32 %304 to i64
  %306 = add nsw i64 %303, %305
  %307 = inttoptr i64 %306 to ptr
  store ptr %307, ptr %12, align 8
  br label %308

308:                                              ; preds = %295
  %309 = load i32, ptr %16, align 4
  %310 = add nsw i32 %309, -1
  store i32 %310, ptr %16, align 4
  %311 = icmp sgt i32 %310, 0
  br i1 %311, label %115, label %312, !llvm.loop !52

312:                                              ; preds = %308
  br label %340

313:                                              ; preds = %100
  br label %314

314:                                              ; preds = %335, %313
  %315 = load i32, ptr %15, align 4
  store i32 %315, ptr %36, align 4
  br label %316

316:                                              ; preds = %324, %314
  %317 = load i16, ptr %27, align 2
  %318 = load ptr, ptr %26, align 8
  %319 = getelementptr inbounds i16, ptr %318, i64 0
  store i16 %317, ptr %319, align 2
  %320 = load ptr, ptr %26, align 8
  %321 = ptrtoint ptr %320 to i64
  %322 = add nsw i64 %321, 2
  %323 = inttoptr i64 %322 to ptr
  store ptr %323, ptr %26, align 8
  br label %324

324:                                              ; preds = %316
  %325 = load i32, ptr %36, align 4
  %326 = add nsw i32 %325, -1
  store i32 %326, ptr %36, align 4
  %327 = icmp sgt i32 %326, 0
  br i1 %327, label %316, label %328, !llvm.loop !53

328:                                              ; preds = %324
  %329 = load ptr, ptr %26, align 8
  %330 = ptrtoint ptr %329 to i64
  %331 = load i32, ptr %25, align 4
  %332 = sext i32 %331 to i64
  %333 = add nsw i64 %330, %332
  %334 = inttoptr i64 %333 to ptr
  store ptr %334, ptr %26, align 8
  br label %335

335:                                              ; preds = %328
  %336 = load i32, ptr %16, align 4
  %337 = add nsw i32 %336, -1
  store i32 %337, ptr %16, align 4
  %338 = icmp sgt i32 %337, 0
  br i1 %338, label %314, label %339, !llvm.loop !54

339:                                              ; preds = %335
  br label %340

340:                                              ; preds = %339, %312
  ret void
}