; Function Attrs: nofree norecurse nosync nounwind memory(readwrite, inaccessiblemem: none) uwtable
define hidden void @Ushort565RgbSrcMaskFill(ptr noundef %0, ptr noundef %1, i32 noundef %2, i32 noundef %3, i32 noundef %4, i32 noundef %5, i32 noundef %6, ptr nocapture noundef readonly %7, ptr nocapture readnone %8, ptr nocapture readnone %9) #1 {
  %11 = getelementptr inbounds i8, ptr %7, i64 32
  %12 = load i32, ptr %11, align 8
  %13 = and i32 %6, 255
  %14 = lshr i32 %6, 8
  %15 = and i32 %14, 255
  %16 = lshr i32 %6, 16
  %17 = and i32 %16, 255
  %18 = lshr i32 %6, 24
  %19 = icmp ult i32 %6, 16777216
  br i1 %19, label %43, label %20

20:                                               ; preds = %10
  %21 = shl nuw nsw i32 %16, 8
  %22 = and i32 %21, 63488
  %23 = shl nuw nsw i32 %14, 3
  %24 = and i32 %23, 2016
  %25 = lshr i32 %13, 3
  %26 = or disjoint i32 %24, %25
  %27 = or disjoint i32 %26, %22
  %28 = trunc nuw i32 %27 to i16
  %.not = icmp eq i32 %18, 255
  br i1 %.not, label %43, label %29

29:                                               ; preds = %20
  %30 = zext nneg i32 %18 to i64
  %31 = zext nneg i32 %17 to i64
  %32 = getelementptr inbounds [256 x [256 x i8]], ptr @mul8table, i64 0, i64 %30, i64 %31
  %33 = load i8, ptr %32, align 1
  %34 = zext i8 %33 to i32
  %35 = zext nneg i32 %15 to i64
  %36 = getelementptr inbounds [256 x [256 x i8]], ptr @mul8table, i64 0, i64 %30, i64 %35
  %37 = load i8, ptr %36, align 1
  %38 = zext i8 %37 to i32
  %39 = zext nneg i32 %13 to i64
  %40 = getelementptr inbounds [256 x [256 x i8]], ptr @mul8table, i64 0, i64 %30, i64 %39
  %41 = load i8, ptr %40, align 1
  %42 = zext i8 %41 to i32
  br label %43

43:                                               ; preds = %10, %20, %29
  %.098 = phi i32 [ %34, %29 ], [ %17, %20 ], [ 0, %10 ]
  %.097 = phi i32 [ %38, %29 ], [ %15, %20 ], [ 0, %10 ]
  %.096 = phi i32 [ %42, %29 ], [ %13, %20 ], [ 0, %10 ]
  %.093 = phi i16 [ %28, %29 ], [ %28, %20 ], [ 0, %10 ]
  %44 = shl nsw i32 %4, 1
  %45 = sub nsw i32 %12, %44
  %.not106 = icmp eq ptr %1, null
  br i1 %.not106, label %.preheader, label %47

.preheader:                                       ; preds = %43
  %46 = sext i32 %45 to i64
  br label %150

47:                                               ; preds = %43
  %48 = sext i32 %2 to i64
  %49 = getelementptr inbounds i8, ptr %1, i64 %48
  %50 = sub nsw i32 %3, %4
  %51 = sext i32 %45 to i64
  %52 = zext nneg i32 %18 to i64
  %53 = zext nneg i32 %.098 to i64
  %54 = zext nneg i32 %.097 to i64
  %55 = zext nneg i32 %.096 to i64
  %56 = sext i32 %50 to i64
  br label %57

57:                                               ; preds = %142, %47
  %.094 = phi ptr [ %0, %47 ], [ %144, %142 ]
  %.087 = phi i32 [ %5, %47 ], [ %148, %142 ]
  %.086 = phi ptr [ %49, %47 ], [ %147, %142 ]
  br label %58

58:                                               ; preds = %136, %57
  %.195 = phi ptr [ %.094, %57 ], [ %139, %136 ]
  %.092 = phi i32 [ %4, %57 ], [ %140, %136 ]
  %.1 = phi ptr [ %.086, %57 ], [ %59, %136 ]
  %59 = getelementptr inbounds i8, ptr %.1, i64 1
  %60 = load i8, ptr %.1, align 1
  switch i8 %60, label %61 [
    i8 0, label %136
    i8 -1, label %.sink.split
  ]

61:                                               ; preds = %58
  %62 = xor i8 %60, -1
  %63 = zext i8 %62 to i64
  %64 = getelementptr inbounds [256 x [256 x i8]], ptr @mul8table, i64 0, i64 %63, i64 255
  %65 = load i8, ptr %64, align 1
  %66 = zext i8 %65 to i32
  %67 = zext i8 %60 to i64
  %68 = getelementptr inbounds [256 x [256 x i8]], ptr @mul8table, i64 0, i64 %67, i64 %52
  %69 = load i8, ptr %68, align 1
  %70 = zext i8 %69 to i32
  %71 = add nuw nsw i32 %70, %66
  %72 = load i16, ptr %.195, align 2
  %73 = zext i16 %72 to i32
  %74 = lshr i32 %73, 8
  %75 = and i32 %74, 248
  %76 = lshr i32 %73, 13
  %77 = or disjoint i32 %75, %76
  %78 = lshr i32 %73, 5
  %79 = and i32 %78, 63
  %80 = shl nuw nsw i32 %79, 2
  %81 = lshr i32 %79, 4
  %82 = or disjoint i32 %80, %81
  %83 = and i32 %73, 31
  %84 = shl nuw nsw i32 %83, 3
  %85 = lshr i32 %83, 2
  %86 = or disjoint i32 %84, %85
  %87 = zext i8 %65 to i64
  %88 = zext nneg i32 %77 to i64
  %89 = getelementptr inbounds [256 x [256 x i8]], ptr @mul8table, i64 0, i64 %87, i64 %88
  %90 = load i8, ptr %89, align 1
  %91 = zext i8 %90 to i32
  %92 = getelementptr inbounds [256 x [256 x i8]], ptr @mul8table, i64 0, i64 %67, i64 %53
  %93 = load i8, ptr %92, align 1
  %94 = zext i8 %93 to i32
  %95 = add nuw nsw i32 %94, %91
  %96 = zext nneg i32 %82 to i64
  %97 = getelementptr inbounds [256 x [256 x i8]], ptr @mul8table, i64 0, i64 %87, i64 %96
  %98 = load i8, ptr %97, align 1
  %99 = zext i8 %98 to i32
  %100 = getelementptr inbounds [256 x [256 x i8]], ptr @mul8table, i64 0, i64 %67, i64 %54
  %101 = load i8, ptr %100, align 1
  %102 = zext i8 %101 to i32
  %103 = add nuw nsw i32 %102, %99
  %104 = zext nneg i32 %86 to i64
  %105 = getelementptr inbounds [256 x [256 x i8]], ptr @mul8table, i64 0, i64 %87, i64 %104
  %106 = load i8, ptr %105, align 1
  %107 = zext i8 %106 to i32
  %108 = getelementptr inbounds [256 x [256 x i8]], ptr @mul8table, i64 0, i64 %67, i64 %55
  %109 = load i8, ptr %108, align 1
  %110 = zext i8 %109 to i32
  %111 = add nuw nsw i32 %110, %107
  %112 = add nsw i32 %71, -1
  %or.cond = icmp ult i32 %112, 254
  br i1 %or.cond, label %113, label %127

113:                                              ; preds = %61
  %114 = zext nneg i32 %71 to i64
  %115 = zext nneg i32 %95 to i64
  %116 = getelementptr inbounds [256 x [256 x i8]], ptr @div8table, i64 0, i64 %114, i64 %115
  %117 = load i8, ptr %116, align 1
  %118 = zext i8 %117 to i32
  %119 = zext nneg i32 %103 to i64
  %120 = getelementptr inbounds [256 x [256 x i8]], ptr @div8table, i64 0, i64 %114, i64 %119
  %121 = load i8, ptr %120, align 1
  %122 = zext i8 %121 to i32
  %123 = zext nneg i32 %111 to i64
  %124 = getelementptr inbounds [256 x [256 x i8]], ptr @div8table, i64 0, i64 %114, i64 %123
  %125 = load i8, ptr %124, align 1
  %126 = zext i8 %125 to i32
  br label %127

127:                                              ; preds = %113, %61
  %.091 = phi i32 [ %118, %113 ], [ %95, %61 ]
  %.090 = phi i32 [ %122, %113 ], [ %103, %61 ]
  %.089 = phi i32 [ %126, %113 ], [ %111, %61 ]
  %128 = shl nuw nsw i32 %.091, 8
  %129 = and i32 %128, 63488
  %130 = shl nuw nsw i32 %.090, 3
  %131 = and i32 %130, 65504
  %132 = or i32 %131, %129
  %133 = lshr i32 %.089, 3
  %134 = or i32 %132, %133
  %135 = trunc nuw i32 %134 to i16
  br label %.sink.split

.sink.split:                                      ; preds = %58, %127
  %.093.sink = phi i16 [ %135, %127 ], [ %.093, %58 ]
  store i16 %.093.sink, ptr %.195, align 2
  br label %136

136:                                              ; preds = %.sink.split, %58
  %137 = ptrtoint ptr %.195 to i64
  %138 = add nsw i64 %137, 2
  %139 = inttoptr i64 %138 to ptr
  %140 = add nsw i32 %.092, -1
  %141 = icmp sgt i32 %.092, 1
  br i1 %141, label %58, label %142, !llvm.loop !47

142:                                              ; preds = %136
  %143 = add nsw i64 %138, %51
  %144 = inttoptr i64 %143 to ptr
  %145 = ptrtoint ptr %59 to i64
  %146 = add nsw i64 %145, %56
  %147 = inttoptr i64 %146 to ptr
  %148 = add nsw i32 %.087, -1
  %149 = icmp sgt i32 %.087, 1
  br i1 %149, label %57, label %.loopexit, !llvm.loop !48

150:                                              ; preds = %.preheader, %157
  %.2 = phi ptr [ %159, %157 ], [ %0, %.preheader ]
  %.188 = phi i32 [ %160, %157 ], [ %5, %.preheader ]
  br label %151

151:                                              ; preds = %151, %150
  %.3 = phi ptr [ %.2, %150 ], [ %154, %151 ]
  %.0 = phi i32 [ %4, %150 ], [ %155, %151 ]
  store i16 %.093, ptr %.3, align 2
  %152 = ptrtoint ptr %.3 to i64
  %153 = add nsw i64 %152, 2
  %154 = inttoptr i64 %153 to ptr
  %155 = add nsw i32 %.0, -1
  %156 = icmp sgt i32 %.0, 1
  br i1 %156, label %151, label %157, !llvm.loop !49

157:                                              ; preds = %151
  %158 = add nsw i64 %153, %46
  %159 = inttoptr i64 %158 to ptr
  %160 = add nsw i32 %.188, -1
  %161 = icmp sgt i32 %.188, 1
  br i1 %161, label %150, label %.loopexit, !llvm.loop !50

.loopexit:                                        ; preds = %142, %157
  ret void
}